target datalayout = "e-m:e-p270:32:32-p271:32:32-p272:64:64-i64:64-i128:128-f80:128-n8:16:32:64-S128"
target triple = "x86_64-pc-linux-gnu"

; Function Attrs: mustprogress nounwind uwtable
define dso_local noundef i32 @_Z6randomii(i32 noundef %0, i32 noundef %1) #0 {
  %3 = alloca i32, align 4
  %4 = alloca i32, align 4
  store i32 %0, ptr %3, align 4, !tbaa !4
  store i32 %1, ptr %4, align 4, !tbaa !4
  %5 = load i32, ptr %3, align 4, !tbaa !4
  %6 = sitofp i32 %5 to double
  %7 = call i32 @rand() #13
  %8 = sitofp i32 %7 to double
  %9 = fdiv double %8, 0x41DFFFFFFFC00000
  %10 = load i32, ptr %4, align 4, !tbaa !4
  %11 = load i32, ptr %3, align 4, !tbaa !4
  %12 = sub nsw i32 %10, %11
  %13 = sitofp i32 %12 to double
  %14 = call double @llvm.fmuladd.f64(double %9, double %13, double %6)
  %15 = fadd double %14, 5.000000e-01
  %16 = fptosi double %15 to i32
  ret i32 %16
}

; Function Attrs: mustprogress uwtable
define dso_local void @_Z13RandomCommandPPc(ptr noundef %0) #3 {
  %2 = alloca ptr, align 8
  %3 = alloca i32, align 4
  %4 = alloca i32, align 4
  store ptr %0, ptr %2, align 8, !tbaa !8
  call void @llvm.lifetime.start.p0(i64 4, ptr %3) #13
  %5 = call noundef i32 @_Z6randomii(i32 noundef 5, i32 noundef 100)
  store i32 %5, ptr %3, align 4, !tbaa !4
  %6 = load i32, ptr %3, align 4, !tbaa !4
  %7 = add nsw i32 %6, 1
  %8 = sext i32 %7 to i64
  %9 = call noalias noundef nonnull ptr @_Znam(i64 noundef %8) #14
  %10 = load ptr, ptr %2, align 8, !tbaa !8
  store ptr %9, ptr %10, align 8, !tbaa !12
  call void @llvm.lifetime.start.p0(i64 4, ptr %4) #13
  store i32 0, ptr %4, align 4, !tbaa !4
  br label %11

11:                                               ; preds = %24, %1
  %12 = load i32, ptr %4, align 4, !tbaa !4
  %13 = load i32, ptr %3, align 4, !tbaa !4
  %14 = icmp slt i32 %12, %13
  br i1 %14, label %16, label %15

15:                                               ; preds = %11
  call void @llvm.lifetime.end.p0(i64 4, ptr %4) #13
  br label %27

16:                                               ; preds = %11
  %17 = call noundef i32 @_Z6randomii(i32 noundef 32, i32 noundef 127)
  %18 = trunc i32 %17 to i8
  %19 = load ptr, ptr %2, align 8, !tbaa !8
  %20 = load ptr, ptr %19, align 8, !tbaa !12
  %21 = load i32, ptr %4, align 4, !tbaa !4
  %22 = sext i32 %21 to i64
  %23 = getelementptr inbounds i8, ptr %20, i64 %22
  store i8 %18, ptr %23, align 1, !tbaa !14
  br label %24

24:                                               ; preds = %16
  %25 = load i32, ptr %4, align 4, !tbaa !4
  %26 = add nsw i32 %25, 1
  store i32 %26, ptr %4, align 4, !tbaa !4
  br label %11, !llvm.loop !15

27:                                               ; preds = %15
  %28 = load ptr, ptr %2, align 8, !tbaa !8
  %29 = load ptr, ptr %28, align 8, !tbaa !12
  %30 = load i32, ptr %3, align 4, !tbaa !4
  %31 = sext i32 %30 to i64
  %32 = getelementptr inbounds i8, ptr %29, i64 %31
  store i8 0, ptr %32, align 1, !tbaa !14
  call void @llvm.lifetime.end.p0(i64 4, ptr %3) #13
  ret void
}