; Function Attrs: mustprogress uwtable
define dso_local void @_Z13RandomCommandPPc(ptr noundef captures(none) initializes((0, 8)) %0) local_unnamed_addr #3 {
  %2 = tail call i32 @rand() #10
  %3 = sitofp i32 %2 to double
  %4 = fdiv double %3, 0x41DFFFFFFFC00000
  %5 = tail call double @llvm.fmuladd.f64(double %4, double 9.500000e+01, double 5.000000e+00)
  %6 = fadd double %5, 5.000000e-01
  %7 = fptosi double %6 to i32
  %8 = add nsw i32 %7, 1
  %9 = sext i32 %8 to i64
  %10 = tail call noalias noundef nonnull ptr @_Znam(i64 noundef %9) #11
  store ptr %10, ptr %0, align 8, !tbaa !4
  %11 = icmp sgt i32 %7, 0
  br i1 %11, label %.lr.ph.preheader, label %._crit_edge

.lr.ph.preheader:                                 ; preds = %1
  %wide.trip.count = zext nneg i32 %7 to i64
  br label %.lr.ph

._crit_edge.loopexit:                             ; preds = %.lr.ph
  %.pre = load ptr, ptr %0, align 8, !tbaa !4
  br label %._crit_edge

._crit_edge:                                      ; preds = %._crit_edge.loopexit, %1
  %12 = phi ptr [ %.pre, %._crit_edge.loopexit ], [ %10, %1 ]
  %13 = sext i32 %7 to i64
  %14 = getelementptr inbounds i8, ptr %12, i64 %13
  store i8 0, ptr %14, align 1, !tbaa !9
  ret void

.lr.ph:                                           ; preds = %.lr.ph.preheader, %.lr.ph
  %indvars.iv = phi i64 [ 0, %.lr.ph.preheader ], [ %indvars.iv.next, %.lr.ph ]
  %15 = tail call i32 @rand() #10
  %16 = sitofp i32 %15 to double
  %17 = fdiv double %16, 0x41DFFFFFFFC00000
  %18 = tail call double @llvm.fmuladd.f64(double %17, double 9.500000e+01, double 3.200000e+01)
  %19 = fadd double %18, 5.000000e-01
  %20 = fptosi double %19 to i32
  %21 = trunc i32 %20 to i8
  %22 = load ptr, ptr %0, align 8, !tbaa !4
  %23 = getelementptr inbounds nuw i8, ptr %22, i64 %indvars.iv
  store i8 %21, ptr %23, align 1, !tbaa !9
  %indvars.iv.next = add nuw nsw i64 %indvars.iv, 1
  %exitcond.not = icmp eq i64 %indvars.iv.next, %wide.trip.count
  br i1 %exitcond.not, label %._crit_edge.loopexit, label %.lr.ph, !llvm.loop !10
}